target datalayout = "e-m:e-p270:32:32-p271:32:32-p272:64:64-i64:64-i128:128-f80:128-n8:16:32:64-S128"
target triple = "x86_64-pc-linux-gnu"

@.str.2 = private unnamed_addr constant [4 x i8] c"u3v\00", align 1
@proto_u3v = internal global i32 0, align 4
@u3v_handle = internal global ptr null, align 8
@.str.3 = private unnamed_addr constant [9 x i8] c"usb.bulk\00", align 1
@.str.4 = private unnamed_addr constant [20 x i8] c"USB3Vision Protocol\00", align 1
@.str.5 = private unnamed_addr constant [15 x i8] c"usb.descriptor\00", align 1

; Function Attrs: null_pointer_is_valid sspstrong uwtable
define hidden void @proto_reg_handoff_u3v() #0 {
  %1 = alloca ptr, align 8
  call void @llvm.lifetime.start.p0(i64 8, ptr %1) #6
  store ptr null, ptr %1, align 8
  %2 = load ptr, ptr @u3v_handle, align 8
  call void @dissector_add_uint(ptr noundef @.str.3, i32 noundef 239, ptr noundef %2)
  %3 = load i32, ptr @proto_u3v, align 4
  call void @heur_dissector_add(ptr noundef @.str.3, ptr noundef @dissect_u3v_heur, ptr noundef @.str.4, ptr noundef @.str.2, i32 noundef %3, i32 noundef 1)
  %4 = load i32, ptr @proto_u3v, align 4
  %5 = call ptr @create_dissector_handle(ptr noundef @dissect_u3v_descriptors, i32 noundef %4)
  store ptr %5, ptr %1, align 8
  %6 = load ptr, ptr %1, align 8
  call void @dissector_add_uint(ptr noundef @.str.5, i32 noundef 239, ptr noundef %6)
  call void @llvm.lifetime.end.p0(i64 8, ptr %1) #6
  ret void
}