; Function Attrs: null_pointer_is_valid sspstrong uwtable
define hidden void @proto_reg_handoff_u3v() local_unnamed_addr #0 {
  %1 = load ptr, ptr @u3v_handle, align 8
  tail call void @dissector_add_uint(ptr noundef nonnull @.str.3, i32 noundef 239, ptr noundef %1)
  %2 = load i32, ptr @proto_u3v, align 4
  tail call void @heur_dissector_add(ptr noundef nonnull @.str.3, ptr noundef nonnull @dissect_u3v_heur, ptr noundef nonnull @.str.4, ptr noundef nonnull @.str.2, i32 noundef %2, i32 noundef 1)
  %3 = load i32, ptr @proto_u3v, align 4
  %4 = tail call ptr @create_dissector_handle(ptr noundef nonnull @dissect_u3v_descriptors, i32 noundef %3)
  tail call void @dissector_add_uint(ptr noundef nonnull @.str.5, i32 noundef 239, ptr noundef %4)
  ret void
}